; Function Attrs: mustprogress nounwind uwtable
define hidden void @_ZN23ZServiceabilityCountersC2Emmm(ptr noundef nonnull align 8 dereferenceable(200) %0, i64 noundef %1, i64 noundef %2, i64 noundef %3) unnamed_addr #0 align 2 {
  %5 = getelementptr inbounds i8, ptr %0, i64 8
  tail call void @_ZN18GenerationCountersC2EPKciimmm(ptr noundef nonnull align 8 dereferenceable(32) %5, ptr noundef nonnull @.str, i32 noundef 0, i32 noundef 1, i64 noundef %2, i64 noundef %3, i64 noundef %1) #9
  store ptr getelementptr inbounds inrange(-16, 8) (i8, ptr @_ZTV19ZGenerationCounters, i64 16), ptr %5, align 8
  %6 = getelementptr inbounds i8, ptr %0, i64 40
  tail call void @_ZN18GenerationCountersC2EPKciimmm(ptr noundef nonnull align 8 dereferenceable(32) %6, ptr noundef nonnull @.str.4, i32 noundef 1, i32 noundef 1, i64 noundef 0, i64 noundef %3, i64 noundef 0) #9
  store ptr getelementptr inbounds inrange(-16, 8) (i8, ptr @_ZTV19ZGenerationCounters, i64 16), ptr %6, align 8
  %7 = getelementptr inbounds i8, ptr %0, i64 72
  %8 = getelementptr inbounds i8, ptr %0, i64 32
  %9 = load ptr, ptr %8, align 8
  tail call void @_ZN14HSpaceCountersC1EPKcS1_imm(ptr noundef nonnull align 8 dereferenceable(24) %7, ptr noundef %9, ptr noundef nonnull @.str.5, i32 noundef 0, i64 noundef %3, i64 noundef %1) #9
  %10 = getelementptr inbounds i8, ptr %0, i64 96
  %11 = getelementptr inbounds i8, ptr %0, i64 64
  %12 = load ptr, ptr %11, align 8
  tail call void @_ZN14HSpaceCountersC1EPKcS1_imm(ptr noundef nonnull align 8 dereferenceable(24) %10, ptr noundef %12, ptr noundef nonnull @.str.5, i32 noundef 0, i64 noundef %3, i64 noundef 0) #9
  %13 = getelementptr inbounds i8, ptr %0, i64 120
  tail call void @_ZN17CollectorCountersC1EPKci(ptr noundef nonnull align 8 dereferenceable(40) %13, ptr noundef nonnull @.str.6, i32 noundef 0) #9
  %14 = getelementptr inbounds i8, ptr %0, i64 160
  tail call void @_ZN17CollectorCountersC1EPKci(ptr noundef nonnull align 8 dereferenceable(40) %14, ptr noundef nonnull @.str.7, i32 noundef 2) #9
  ret void
}